; Function Attrs: mustprogress nounwind uwtable
define hidden noundef ptr @_ZNK7JfrDCmd19argument_name_arrayEv(ptr noundef nonnull align 8 dereferenceable(37) %0) unnamed_addr #0 align 2 {
  %2 = load ptr, ptr %0, align 8
  %3 = getelementptr inbounds i8, ptr %2, i64 48
  %4 = load ptr, ptr %3, align 8
  %5 = tail call noundef ptr %4(ptr noundef nonnull align 8 dereferenceable(37) %0) #13
  %6 = tail call noundef ptr @_Z23resource_allocate_bytesmN17AllocFailStrategy13AllocFailEnumE(i64 noundef 24, i32 noundef 0) #13
  %7 = load i32, ptr %5, align 4
  %8 = tail call noundef ptr @_ZN30GrowableArrayResourceAllocator8allocateEii(i32 noundef %7, i32 noundef 8) #13
  store i32 0, ptr %6, align 4
  %9 = getelementptr inbounds i8, ptr %6, i64 4
  store i32 %7, ptr %9, align 4
  %10 = getelementptr inbounds i8, ptr %6, i64 8
  store ptr %8, ptr %10, align 8
  %11 = icmp sgt i32 %7, 0
  br i1 %11, label %.lr.ph.preheader.i.i, label %_ZN13GrowableArrayIPKcEC2Ei.exit

.lr.ph.preheader.i.i:                             ; preds = %1
  %12 = zext nneg i32 %7 to i64
  %13 = shl nuw nsw i64 %12, 3
  tail call void @llvm.memset.p0.i64(ptr align 8 %8, i8 0, i64 %13, i1 false)
  br label %_ZN13GrowableArrayIPKcEC2Ei.exit

_ZN13GrowableArrayIPKcEC2Ei.exit:                 ; preds = %1, %.lr.ph.preheader.i.i
  %14 = getelementptr inbounds i8, ptr %6, i64 16
  store i64 0, ptr %14, align 8
  %15 = load i32, ptr %5, align 4
  %16 = icmp sgt i32 %15, 0
  br i1 %16, label %.lr.ph, label %._crit_edge

.lr.ph:                                           ; preds = %_ZN13GrowableArrayIPKcEC2Ei.exit
  %17 = getelementptr inbounds i8, ptr %5, i64 8
  br label %18

18:                                               ; preds = %.lr.ph, %_ZN26GrowableArrayWithAllocatorIPKc13GrowableArrayIS1_EE6appendERKS1_.exit
  %indvars.iv = phi i64 [ 0, %.lr.ph ], [ %indvars.iv.next, %_ZN26GrowableArrayWithAllocatorIPKc13GrowableArrayIS1_EE6appendERKS1_.exit ]
  %19 = load ptr, ptr %17, align 8
  %20 = getelementptr inbounds ptr, ptr %19, i64 %indvars.iv
  %21 = load ptr, ptr %20, align 8
  %22 = load ptr, ptr %21, align 8
  %23 = load i32, ptr %6, align 8
  %24 = load i32, ptr %9, align 4
  %25 = icmp eq i32 %23, %24
  br i1 %25, label %26, label %_ZN26GrowableArrayWithAllocatorIPKc13GrowableArrayIS1_EE6appendERKS1_.exit

26:                                               ; preds = %18
  %27 = add nsw i32 %23, 1
  %28 = icmp sgt i32 %23, -1
  %29 = xor i32 %23, -2147483648
  %30 = and i32 %29, %27
  %31 = icmp eq i32 %30, 0
  %32 = and i1 %28, %31
  %33 = tail call range(i32 0, 33) i32 @llvm.ctlz.i32(i32 %27, i1 true)
  %34 = sub nuw nsw i32 32, %33
  %35 = shl nuw i32 1, %34
  %.0.i.i.i.i = select i1 %32, i32 %27, i32 %35
  tail call void @_ZN26GrowableArrayWithAllocatorIPKc13GrowableArrayIS1_EE9expand_toEi(ptr noundef nonnull align 8 dereferenceable(16) %6, i32 noundef %.0.i.i.i.i)
  %.pre.i = load i32, ptr %6, align 8
  br label %_ZN26GrowableArrayWithAllocatorIPKc13GrowableArrayIS1_EE6appendERKS1_.exit

_ZN26GrowableArrayWithAllocatorIPKc13GrowableArrayIS1_EE6appendERKS1_.exit: ; preds = %18, %26
  %36 = phi i32 [ %.pre.i, %26 ], [ %23, %18 ]
  %37 = add nsw i32 %36, 1
  store i32 %37, ptr %6, align 8
  %38 = load ptr, ptr %10, align 8
  %39 = sext i32 %36 to i64
  %40 = getelementptr inbounds ptr, ptr %38, i64 %39
  store ptr %22, ptr %40, align 8
  %indvars.iv.next = add nuw nsw i64 %indvars.iv, 1
  %41 = load i32, ptr %5, align 4
  %42 = sext i32 %41 to i64
  %43 = icmp slt i64 %indvars.iv.next, %42
  br i1 %43, label %18, label %._crit_edge, !llvm.loop !10

._crit_edge:                                      ; preds = %_ZN26GrowableArrayWithAllocatorIPKc13GrowableArrayIS1_EE6appendERKS1_.exit, %_ZN13GrowableArrayIPKcEC2Ei.exit
  ret ptr %6
}